; Function Attrs: mustprogress nofree norecurse nosync nounwind willreturn memory(argmem: write, inaccessiblemem: readwrite) uwtable
define void @ZSTD_getParams(ptr dead_on_unwind noalias writable writeonly sret(%struct.ZSTD_parameters) align 4 captures(none) initializes((0, 40)) %0, i32 noundef %1, i64 noundef %2, i64 noundef %3) local_unnamed_addr #15 {
  %5 = icmp eq i64 %2, 0
  %spec.store.select = select i1 %5, i64 -1, i64 %2
  tail call fastcc void @ZSTD_getCParams_internal(ptr dead_on_unwind noalias nonnull writable align 4 %0, i32 noundef %1, i64 noundef %spec.store.select, i64 noundef %3, i32 noundef 3)
  %6 = getelementptr inbounds nuw i8, ptr %0, i64 32
  store i64 0, ptr %6, align 4, !alias.scope !367
  %7 = getelementptr inbounds nuw i8, ptr %0, i64 28
  store i32 1, ptr %7, align 4, !tbaa !370, !alias.scope !367
  ret void
}